(lp1
S'fitted_psa'
p2
aS'fitted_psa'
p3
aS'fitted_psa'
p4
aS'fitted_psa'
p5
aS'fitted_psa'
p6
aS'fitted_psa'
p7
aS'fitted_psa'
p8
aS'fitted_psa'
p9
aS'fitted_psa'
p10
aS'fitted_psa'
p11
aS'fitted_psa'
p12
aS'fitted_psa'
p13
a.