(lp1
S'DIMS(1)'
p2
aS'DIMS(2)'
p3
aS'DIMS(3)'
p4
aS'FRODA(1)'
p5
aS'FRODA(2)'
p6
aS'FRODA(3)'
p7
aS'rTMD-F(1)'
p8
aS'rTMD-F(2)'
p9
aS'rTMD-F(3)'
p10
aS'rTMD-S(1)'
p11
aS'rTMD-S(2)'
p12
aS'rTMD-S(3)'
p13
a.